; ModuleID = 'source-C-CXX/46/3625.c'
source_filename = "source-C-CXX/46/3625.c"
target datalayout = "e-m:e-p270:32:32-p271:32:32-p272:64:64-i64:64-f80:128-n8:16:32:64-S128"
target triple = "x86_64-pc-linux-gnu"

@.str = private unnamed_addr constant [3 x i8] c"%d\00", align 1
@.str.1 = private unnamed_addr constant [4 x i8] c"%d \00", align 1

; Function Attrs: nofree nounwind sspstrong uwtable
define dso_local void @main() local_unnamed_addr #0 {
  %1 = alloca [100 x i32], align 16
  %2 = alloca i32, align 4
  %3 = bitcast [100 x i32]* %1 to i8*
  call void @llvm.lifetime.start.p0i8(i64 400, i8* nonnull %3) #3
  %4 = bitcast i32* %2 to i8*
  call void @llvm.lifetime.start.p0i8(i64 4, i8* nonnull %4) #3
  %5 = call i32 (i8*, ...) @__isoc99_scanf(i8* getelementptr inbounds ([3 x i8], [3 x i8]* @.str, i64 0, i64 0), i32* nonnull %2)
  %6 = load i32, i32* %2, align 4, !tbaa !5
  %7 = icmp sgt i32 %6, 0
  br i1 %7, label %8, label %72

8:                                                ; preds = %0, %8
  %9 = phi i64 [ %12, %8 ], [ 0, %0 ]
  %10 = getelementptr inbounds [100 x i32], [100 x i32]* %1, i64 0, i64 %9
  %11 = call i32 (i8*, ...) @__isoc99_scanf(i8* getelementptr inbounds ([3 x i8], [3 x i8]* @.str, i64 0, i64 0), i32* nonnull %10)
  %12 = add nuw nsw i64 %9, 1
  %13 = load i32, i32* %2, align 4, !tbaa !5
  %14 = sext i32 %13 to i64
  %15 = icmp slt i64 %12, %14
  br i1 %15, label %8, label %16, !llvm.loop !9

16:                                               ; preds = %8
  %17 = icmp sgt i32 %13, 1
  br i1 %17, label %18, label %72

18:                                               ; preds = %16
  %19 = lshr i32 %13, 1
  %20 = zext i32 %19 to i64
  %21 = and i64 %20, 1
  %22 = icmp eq i32 %19, 1
  br i1 %22, label %27, label %23

23:                                               ; preds = %18
  %24 = and i64 %20, 2147483646
  br label %39

25:                                               ; preds = %39
  %26 = sub nuw i32 -3, %41
  br label %27

27:                                               ; preds = %25, %18
  %28 = phi i64 [ 0, %18 ], [ %58, %25 ]
  %29 = phi i32 [ -1, %18 ], [ %26, %25 ]
  %30 = icmp eq i64 %21, 0
  br i1 %30, label %38, label %31

31:                                               ; preds = %27
  %32 = add i32 %13, %29
  %33 = getelementptr inbounds [100 x i32], [100 x i32]* %1, i64 0, i64 %28
  %34 = load i32, i32* %33, align 4, !tbaa !5
  %35 = sext i32 %32 to i64
  %36 = getelementptr inbounds [100 x i32], [100 x i32]* %1, i64 0, i64 %35
  %37 = load i32, i32* %36, align 4, !tbaa !5
  store i32 %37, i32* %33, align 4, !tbaa !5
  store i32 %34, i32* %36, align 4, !tbaa !5
  br label %38

38:                                               ; preds = %27, %31
  br i1 %17, label %62, label %72

39:                                               ; preds = %39, %23
  %40 = phi i64 [ 0, %23 ], [ %58, %39 ]
  %41 = phi i32 [ 0, %23 ], [ %59, %39 ]
  %42 = phi i64 [ %24, %23 ], [ %60, %39 ]
  %43 = xor i32 %41, -1
  %44 = add i32 %13, %43
  %45 = getelementptr inbounds [100 x i32], [100 x i32]* %1, i64 0, i64 %40
  %46 = load i32, i32* %45, align 8, !tbaa !5
  %47 = sext i32 %44 to i64
  %48 = getelementptr inbounds [100 x i32], [100 x i32]* %1, i64 0, i64 %47
  %49 = load i32, i32* %48, align 4, !tbaa !5
  store i32 %49, i32* %45, align 8, !tbaa !5
  store i32 %46, i32* %48, align 4, !tbaa !5
  %50 = or i64 %40, 1
  %51 = sub nuw nsw i32 -2, %41
  %52 = add i32 %13, %51
  %53 = getelementptr inbounds [100 x i32], [100 x i32]* %1, i64 0, i64 %50
  %54 = load i32, i32* %53, align 4, !tbaa !5
  %55 = sext i32 %52 to i64
  %56 = getelementptr inbounds [100 x i32], [100 x i32]* %1, i64 0, i64 %55
  %57 = load i32, i32* %56, align 4, !tbaa !5
  store i32 %57, i32* %53, align 4, !tbaa !5
  store i32 %54, i32* %56, align 4, !tbaa !5
  %58 = add nuw nsw i64 %40, 2
  %59 = add nuw nsw i32 %41, 2
  %60 = add i64 %42, -2
  %61 = icmp eq i64 %60, 0
  br i1 %61, label %25, label %39, !llvm.loop !11

62:                                               ; preds = %38, %62
  %63 = phi i64 [ %67, %62 ], [ 0, %38 ]
  %64 = getelementptr inbounds [100 x i32], [100 x i32]* %1, i64 0, i64 %63
  %65 = load i32, i32* %64, align 4, !tbaa !5
  %66 = call i32 (i8*, ...) @printf(i8* nonnull dereferenceable(1) getelementptr inbounds ([4 x i8], [4 x i8]* @.str.1, i64 0, i64 0), i32 %65)
  %67 = add nuw nsw i64 %63, 1
  %68 = load i32, i32* %2, align 4, !tbaa !5
  %69 = add nsw i32 %68, -1
  %70 = sext i32 %69 to i64
  %71 = icmp slt i64 %67, %70
  br i1 %71, label %62, label %72, !llvm.loop !12

72:                                               ; preds = %62, %16, %0, %38
  %73 = phi i32 [ %13, %38 ], [ %6, %0 ], [ %13, %16 ], [ %68, %62 ]
  %74 = sext i32 %73 to i64
  %75 = getelementptr inbounds [100 x i32], [100 x i32]* %1, i64 0, i64 %74
  %76 = getelementptr inbounds i32, i32* %75, i64 -1
  %77 = load i32, i32* %76, align 4, !tbaa !5
  %78 = call i32 (i8*, ...) @printf(i8* nonnull dereferenceable(1) getelementptr inbounds ([3 x i8], [3 x i8]* @.str, i64 0, i64 0), i32 %77)
  call void @llvm.lifetime.end.p0i8(i64 4, i8* nonnull %4) #3
  call void @llvm.lifetime.end.p0i8(i64 400, i8* nonnull %3) #3
  ret void
}

; Function Attrs: argmemonly mustprogress nofree nosync nounwind willreturn
declare void @llvm.lifetime.start.p0i8(i64 immarg, i8* nocapture) #1

; Function Attrs: nofree nounwind
declare noundef i32 @__isoc99_scanf(i8* nocapture noundef readonly, ...) local_unnamed_addr #2

; Function Attrs: nofree nounwind
declare noundef i32 @printf(i8* nocapture noundef readonly, ...) local_unnamed_addr #2

; Function Attrs: argmemonly mustprogress nofree nosync nounwind willreturn
declare void @llvm.lifetime.end.p0i8(i64 immarg, i8* nocapture) #1


!llvm.module.flags = !{!0, !1, !2, !3}
!llvm.ident = !{!4}

!0 = !{i32 1, !"wchar_size", i32 4}
!1 = !{i32 7, !"PIC Level", i32 2}
!2 = !{i32 7, !"PIE Level", i32 2}
!3 = !{i32 7, !"uwtable", i32 1}
!4 = !{!"clang version 13.0.0"}
!5 = !{!6, !6, i64 0}
!6 = !{!"int", !7, i64 0}
!7 = !{!"omnipotent char", !8, i64 0}
!8 = !{!"Simple C/C++ TBAA"}
!9 = distinct !{!9, !10}
!10 = !{!"llvm.loop.mustprogress"}
!11 = distinct !{!11, !10}
!12 = distinct !{!12, !10}
